; Function Attrs: mustprogress nofree norecurse nosync nounwind willreturn memory(read, inaccessiblemem: none) uwtable
define hidden range(i32 0, 2) i32 @hb_map_has(ptr nocapture noundef readonly %0, i32 noundef %1) local_unnamed_addr #7 {
  %3 = getelementptr inbounds i8, ptr %0, i64 40
  %4 = load ptr, ptr %3, align 8
  %.not.i = icmp eq ptr %4, null
  br i1 %.not.i, label %_ZNK12hb_hashmap_tIjjLb1EE3hasIjEEbRKjPPT_.exit, label %5

5:                                                ; preds = %2
  %6 = mul i32 %1, 506952113
  %7 = and i32 %6, 1073741823
  %8 = getelementptr inbounds i8, ptr %0, i64 28
  %9 = load i32, ptr %8, align 4
  %10 = urem i32 %7, %9
  %11 = zext nneg i32 %10 to i64
  %12 = getelementptr inbounds %"struct.hb_hashmap_t<unsigned int, unsigned int, true>::item_t", ptr %4, i64 %11
  %13 = getelementptr inbounds i8, ptr %12, i64 4
  %14 = load i32, ptr %13, align 4
  %15 = and i32 %14, 2
  %.not16.i.i = icmp eq i32 %15, 0
  br i1 %.not16.i.i, label %_ZNK12hb_hashmap_tIjjLb1EE3hasIjEEbRKjPPT_.exit, label %.lr.ph.i.i

.lr.ph.i.i:                                       ; preds = %5
  %16 = getelementptr inbounds i8, ptr %0, i64 24
  %17 = load i32, ptr %16, align 8
  %18 = load i32, ptr %12, align 4
  %19 = icmp eq i32 %18, %1
  br i1 %19, label %._crit_edge.i, label %.lr.ph.i

20:                                               ; preds = %.lr.ph.i
  %21 = load i32, ptr %28, align 4
  %22 = icmp eq i32 %21, %1
  br i1 %22, label %._crit_edge.i, label %.lr.ph.i, !llvm.loop !8

._crit_edge.i:                                    ; preds = %20, %.lr.ph.i.i
  %.lcssa15.i = phi i32 [ %14, %.lr.ph.i.i ], [ %30, %20 ]
  %23 = and i32 %.lcssa15.i, 1
  br label %_ZNK12hb_hashmap_tIjjLb1EE3hasIjEEbRKjPPT_.exit

.lr.ph.i:                                         ; preds = %.lr.ph.i.i, %20
  %.01017.i18.i = phi i32 [ %26, %20 ], [ %10, %.lr.ph.i.i ]
  %.018.i17.i = phi i32 [ %24, %20 ], [ 0, %.lr.ph.i.i ]
  %24 = add i32 %.018.i17.i, 1
  %25 = add i32 %24, %.01017.i18.i
  %26 = and i32 %25, %17
  %27 = zext i32 %26 to i64
  %28 = getelementptr inbounds %"struct.hb_hashmap_t<unsigned int, unsigned int, true>::item_t", ptr %4, i64 %27
  %29 = getelementptr inbounds i8, ptr %28, i64 4
  %30 = load i32, ptr %29, align 4
  %31 = and i32 %30, 2
  %.not.i.i = icmp eq i32 %31, 0
  br i1 %.not.i.i, label %_ZNK12hb_hashmap_tIjjLb1EE3hasIjEEbRKjPPT_.exit, label %20, !llvm.loop !8

_ZNK12hb_hashmap_tIjjLb1EE3hasIjEEbRKjPPT_.exit:  ; preds = %.lr.ph.i, %._crit_edge.i, %2, %5
  %.0.i = phi i32 [ 0, %2 ], [ 0, %5 ], [ %23, %._crit_edge.i ], [ 0, %.lr.ph.i ]
  ret i32 %.0.i
}